; Function Attrs: mustprogress uwtable
define noundef nonnull ptr @_ZNK3gmx12StringOption13createStorageERKNS_22OptionManagerContainerE(ptr noundef nonnull align 8 dereferenceable(104) %0, ptr nonnull readnone align 1 captures(none) %1) unnamed_addr #2 align 2 personality ptr @__gxx_personality_v0 {
  %3 = tail call noalias noundef nonnull dereferenceable(240) ptr @_Znwm(i64 noundef 240) #29
  invoke void @_ZN3gmx19StringOptionStorageC1ERKNS_12StringOptionE(ptr noundef nonnull align 8 dereferenceable(240) %3, ptr noundef nonnull align 8 dereferenceable(104) %0)
          to label %4 unwind label %5

4:                                                ; preds = %2
  ret ptr %3

5:                                                ; preds = %2
  %6 = landingpad { ptr, i32 }
          cleanup
  tail call void @_ZdlPvm(ptr noundef nonnull %3, i64 noundef 240) #30
  resume { ptr, i32 } %6
}